target datalayout = "e-m:e-p270:32:32-p271:32:32-p272:64:64-i64:64-i128:128-f80:128-n8:16:32:64-S128"
target triple = "x86_64-pc-linux-gnu"

%struct.t_bb = type { float, float, float, float, float, float, float, float, i8, i32, i32, i32, i32, i32, i32, i32, i32, i32, i32, [32 x i8] }

@.str = private unnamed_addr constant [7 x i8] c"  %10g\00", align 1
@.str.1 = private unnamed_addr constant [2 x i8] c"\0A\00", align 1
@.str.2 = private unnamed_addr constant [5 x i8] c"%10g\00", align 1
@.str.3 = private unnamed_addr constant [12 x i8] c"%10g  %10g\0A\00", align 1

; Function Attrs: mustprogress nounwind uwtable
define void @_Z9av_phipsiP8_IO_FILES0_S0_S0_fiP4t_bb(ptr noundef %0, ptr noundef %1, ptr noundef %2, ptr noundef %3, float noundef %4, i32 noundef %5, ptr noundef %6) #2 {
  %8 = alloca ptr, align 8
  %9 = alloca ptr, align 8
  %10 = alloca ptr, align 8
  %11 = alloca ptr, align 8
  %12 = alloca float, align 4
  %13 = alloca i32, align 4
  %14 = alloca ptr, align 8
  %15 = alloca i32, align 4
  %16 = alloca i32, align 4
  %17 = alloca float, align 4
  %18 = alloca float, align 4
  store ptr %0, ptr %8, align 8, !tbaa !30
  store ptr %1, ptr %9, align 8, !tbaa !30
  store ptr %2, ptr %10, align 8, !tbaa !30
  store ptr %3, ptr %11, align 8, !tbaa !30
  store float %4, ptr %12, align 4, !tbaa !11
  store i32 %5, ptr %13, align 4, !tbaa !4
  store ptr %6, ptr %14, align 8, !tbaa !8
  call void @llvm.lifetime.start.p0(i64 4, ptr %15) #14
  call void @llvm.lifetime.start.p0(i64 4, ptr %16) #14
  store i32 0, ptr %16, align 4, !tbaa !4
  call void @llvm.lifetime.start.p0(i64 4, ptr %17) #14
  store float 0.000000e+00, ptr %17, align 4, !tbaa !11
  call void @llvm.lifetime.start.p0(i64 4, ptr %18) #14
  store float 0.000000e+00, ptr %18, align 4, !tbaa !11
  %19 = load ptr, ptr %10, align 8, !tbaa !30
  %20 = load float, ptr %12, align 4, !tbaa !11
  %21 = fpext float %20 to double
  %22 = call i32 (ptr, ptr, ...) @fprintf(ptr noundef %19, ptr noundef @.str.2, double noundef %21) #14
  %23 = load ptr, ptr %11, align 8, !tbaa !30
  %24 = load float, ptr %12, align 4, !tbaa !11
  %25 = fpext float %24 to double
  %26 = call i32 (ptr, ptr, ...) @fprintf(ptr noundef %23, ptr noundef @.str.2, double noundef %25) #14
  store i32 0, ptr %15, align 4, !tbaa !4
  br label %27

27:                                               ; preds = %77, %7
  %28 = load i32, ptr %15, align 4, !tbaa !4
  %29 = load i32, ptr %13, align 4, !tbaa !4
  %30 = icmp slt i32 %28, %29
  br i1 %30, label %31, label %80

31:                                               ; preds = %27
  %32 = load ptr, ptr %14, align 8, !tbaa !8
  %33 = load i32, ptr %15, align 4, !tbaa !4
  %34 = sext i32 %33 to i64
  %35 = getelementptr inbounds %struct.t_bb, ptr %32, i64 %34
  %36 = getelementptr inbounds nuw %struct.t_bb, ptr %35, i32 0, i32 8
  %37 = load i8, ptr %36, align 4, !tbaa !46, !range !47, !noundef !48
  %38 = trunc i8 %37 to i1
  br i1 %38, label %39, label %76

39:                                               ; preds = %31
  %40 = load ptr, ptr %14, align 8, !tbaa !8
  %41 = load i32, ptr %15, align 4, !tbaa !4
  %42 = sext i32 %41 to i64
  %43 = getelementptr inbounds %struct.t_bb, ptr %40, i64 %42
  %44 = getelementptr inbounds nuw %struct.t_bb, ptr %43, i32 0, i32 0
  %45 = load float, ptr %44, align 4, !tbaa !13
  %46 = load float, ptr %17, align 4, !tbaa !11
  %47 = fadd float %46, %45
  store float %47, ptr %17, align 4, !tbaa !11
  %48 = load ptr, ptr %14, align 8, !tbaa !8
  %49 = load i32, ptr %15, align 4, !tbaa !4
  %50 = sext i32 %49 to i64
  %51 = getelementptr inbounds %struct.t_bb, ptr %48, i64 %50
  %52 = getelementptr inbounds nuw %struct.t_bb, ptr %51, i32 0, i32 1
  %53 = load float, ptr %52, align 4, !tbaa !16
  %54 = load float, ptr %18, align 4, !tbaa !11
  %55 = fadd float %54, %53
  store float %55, ptr %18, align 4, !tbaa !11
  %56 = load ptr, ptr %10, align 8, !tbaa !30
  %57 = load ptr, ptr %14, align 8, !tbaa !8
  %58 = load i32, ptr %15, align 4, !tbaa !4
  %59 = sext i32 %58 to i64
  %60 = getelementptr inbounds %struct.t_bb, ptr %57, i64 %59
  %61 = getelementptr inbounds nuw %struct.t_bb, ptr %60, i32 0, i32 0
  %62 = load float, ptr %61, align 4, !tbaa !13
  %63 = fpext float %62 to double
  %64 = call i32 (ptr, ptr, ...) @fprintf(ptr noundef %56, ptr noundef @.str, double noundef %63) #14
  %65 = load ptr, ptr %11, align 8, !tbaa !30
  %66 = load ptr, ptr %14, align 8, !tbaa !8
  %67 = load i32, ptr %15, align 4, !tbaa !4
  %68 = sext i32 %67 to i64
  %69 = getelementptr inbounds %struct.t_bb, ptr %66, i64 %68
  %70 = getelementptr inbounds nuw %struct.t_bb, ptr %69, i32 0, i32 1
  %71 = load float, ptr %70, align 4, !tbaa !16
  %72 = fpext float %71 to double
  %73 = call i32 (ptr, ptr, ...) @fprintf(ptr noundef %65, ptr noundef @.str, double noundef %72) #14
  %74 = load i32, ptr %16, align 4, !tbaa !4
  %75 = add nsw i32 %74, 1
  store i32 %75, ptr %16, align 4, !tbaa !4
  br label %76

76:                                               ; preds = %39, %31
  br label %77

77:                                               ; preds = %76
  %78 = load i32, ptr %15, align 4, !tbaa !4
  %79 = add nsw i32 %78, 1
  store i32 %79, ptr %15, align 4, !tbaa !4
  br label %27, !llvm.loop !53

80:                                               ; preds = %27
  %81 = load ptr, ptr %8, align 8, !tbaa !30
  %82 = load float, ptr %12, align 4, !tbaa !11
  %83 = fpext float %82 to double
  %84 = load float, ptr %17, align 4, !tbaa !11
  %85 = load i32, ptr %16, align 4, !tbaa !4
  %86 = sitofp i32 %85 to float
  %87 = fdiv float %84, %86
  %88 = fpext float %87 to double
  %89 = call i32 (ptr, ptr, ...) @fprintf(ptr noundef %81, ptr noundef @.str.3, double noundef %83, double noundef %88) #14
  %90 = load ptr, ptr %9, align 8, !tbaa !30
  %91 = load float, ptr %12, align 4, !tbaa !11
  %92 = fpext float %91 to double
  %93 = load float, ptr %18, align 4, !tbaa !11
  %94 = load i32, ptr %16, align 4, !tbaa !4
  %95 = sitofp i32 %94 to float
  %96 = fdiv float %93, %95
  %97 = fpext float %96 to double
  %98 = call i32 (ptr, ptr, ...) @fprintf(ptr noundef %90, ptr noundef @.str.3, double noundef %92, double noundef %97) #14
  %99 = load ptr, ptr %10, align 8, !tbaa !30
  %100 = call i32 (ptr, ptr, ...) @fprintf(ptr noundef %99, ptr noundef @.str.1) #14
  %101 = load ptr, ptr %11, align 8, !tbaa !30
  %102 = call i32 (ptr, ptr, ...) @fprintf(ptr noundef %101, ptr noundef @.str.1) #14
  call void @llvm.lifetime.end.p0(i64 4, ptr %18) #14
  call void @llvm.lifetime.end.p0(i64 4, ptr %17) #14
  call void @llvm.lifetime.end.p0(i64 4, ptr %16) #14
  call void @llvm.lifetime.end.p0(i64 4, ptr %15) #14
  ret void
}