; Function Attrs: mustprogress nofree nounwind uwtable
define void @_Z9av_phipsiP8_IO_FILES0_S0_S0_fiP4t_bb(ptr noundef captures(none) %0, ptr noundef captures(none) %1, ptr noundef captures(none) %2, ptr noundef captures(none) %3, float noundef %4, i32 noundef %5, ptr noundef readonly captures(none) %6) local_unnamed_addr #5 {
  %8 = fpext float %4 to double
  %9 = tail call i32 (ptr, ptr, ...) @fprintf(ptr noundef %2, ptr noundef nonnull @.str.2, double noundef %8) #21
  %10 = tail call i32 (ptr, ptr, ...) @fprintf(ptr noundef %3, ptr noundef nonnull @.str.2, double noundef %8) #21
  %11 = icmp sgt i32 %5, 0
  br i1 %11, label %.lr.ph.preheader, label %._crit_edge

.lr.ph.preheader:                                 ; preds = %7
  %wide.trip.count = zext nneg i32 %5 to i64
  br label %.lr.ph

.lr.ph:                                           ; preds = %.lr.ph.preheader, %28
  %indvars.iv = phi i64 [ 0, %.lr.ph.preheader ], [ %indvars.iv.next, %28 ]
  %.040 = phi float [ 0.000000e+00, %.lr.ph.preheader ], [ %.1, %28 ]
  %.03139 = phi float [ 0.000000e+00, %.lr.ph.preheader ], [ %.132, %28 ]
  %.03338 = phi i32 [ 0, %.lr.ph.preheader ], [ %.134, %28 ]
  %12 = getelementptr inbounds nuw %struct.t_bb, ptr %6, i64 %indvars.iv
  %13 = getelementptr inbounds nuw i8, ptr %12, i64 32
  %14 = load i8, ptr %13, align 4, !tbaa !32, !range !33, !noundef !34
  %15 = trunc nuw i8 %14 to i1
  br i1 %15, label %16, label %28

16:                                               ; preds = %.lr.ph
  %17 = load float, ptr %12, align 4, !tbaa !4
  %18 = fadd float %.03139, %17
  %19 = getelementptr inbounds nuw i8, ptr %12, i64 4
  %20 = load float, ptr %19, align 4, !tbaa !11
  %21 = fadd float %.040, %20
  %22 = fpext float %17 to double
  %23 = tail call i32 (ptr, ptr, ...) @fprintf(ptr noundef %2, ptr noundef nonnull @.str, double noundef %22) #21
  %24 = load float, ptr %19, align 4, !tbaa !11
  %25 = fpext float %24 to double
  %26 = tail call i32 (ptr, ptr, ...) @fprintf(ptr noundef %3, ptr noundef nonnull @.str, double noundef %25) #21
  %27 = add nsw i32 %.03338, 1
  br label %28

28:                                               ; preds = %.lr.ph, %16
  %.134 = phi i32 [ %27, %16 ], [ %.03338, %.lr.ph ]
  %.132 = phi float [ %18, %16 ], [ %.03139, %.lr.ph ]
  %.1 = phi float [ %21, %16 ], [ %.040, %.lr.ph ]
  %indvars.iv.next = add nuw nsw i64 %indvars.iv, 1
  %exitcond.not = icmp eq i64 %indvars.iv.next, %wide.trip.count
  br i1 %exitcond.not, label %._crit_edge.loopexit, label %.lr.ph, !llvm.loop !39

._crit_edge.loopexit:                             ; preds = %28
  %29 = sitofp i32 %.134 to float
  br label %._crit_edge

._crit_edge:                                      ; preds = %._crit_edge.loopexit, %7
  %.033.lcssa = phi float [ 0.000000e+00, %7 ], [ %29, %._crit_edge.loopexit ]
  %.031.lcssa = phi float [ 0.000000e+00, %7 ], [ %.132, %._crit_edge.loopexit ]
  %.0.lcssa = phi float [ 0.000000e+00, %7 ], [ %.1, %._crit_edge.loopexit ]
  %30 = fdiv float %.031.lcssa, %.033.lcssa
  %31 = fpext float %30 to double
  %32 = tail call i32 (ptr, ptr, ...) @fprintf(ptr noundef %0, ptr noundef nonnull @.str.3, double noundef %8, double noundef %31) #21
  %33 = fdiv float %.0.lcssa, %.033.lcssa
  %34 = fpext float %33 to double
  %35 = tail call i32 (ptr, ptr, ...) @fprintf(ptr noundef %1, ptr noundef nonnull @.str.3, double noundef %8, double noundef %34) #21
  %fputc = tail call i32 @fputc(i32 10, ptr %2)
  %fputc36 = tail call i32 @fputc(i32 10, ptr %3)
  ret void
}